   1              	 .cpu cortex-m3
   2              	 .eabi_attribute 20,1
   3              	 .eabi_attribute 21,1
   4              	 .eabi_attribute 23,3
   5              	 .eabi_attribute 24,1
   6              	 .eabi_attribute 25,1
   7              	 .eabi_attribute 26,1
   8              	 .eabi_attribute 30,6
   9              	 .eabi_attribute 34,1
  10              	 .eabi_attribute 18,4
  11              	 .file "usb_xmem.c"
  12              	 .text
  13              	.Ltext0:
  14              	 .cfi_sections .debug_frame
  15              	 .section .bss.cpu_irq_critical_section_counter,"aw",%nobits
  16              	 .align 2
  19              	cpu_irq_critical_section_counter:
  20 0000 00000000 	 .space 4
  21              	 .section .bss.cpu_irq_prev_interrupt_state,"aw",%nobits
  24              	cpu_irq_prev_interrupt_state:
  25 0000 00       	 .space 1
  26              	 .global xram
  27              	 .section .data.xram,"aw"
  28              	 .align 2
  31              	xram:
  32 0000 00000060 	 .word 1610612736
  33              	 .section .bss._fpga_locked,"aw",%nobits
  36              	_fpga_locked:
  37 0000 00       	 .space 1
  38              	 .section .text.FPGA_setlock,"ax",%progbits
  39              	 .align 1
  40              	 .global FPGA_setlock
  41              	 .arch armv7-m
  42              	 .syntax unified
  43              	 .thumb
  44              	 .thumb_func
  45              	 .fpu softvfp
  47              	FPGA_setlock:
  48              	.LFB181:
  49              	 .file 1 "usb_xmem.c"
   1:usb_xmem.c    **** /*
   2:usb_xmem.c    ****  Copyright (c) 2015 NewAE Technology Inc. All rights reserved.
   3:usb_xmem.c    **** 
   4:usb_xmem.c    ****  This program is free software: you can redistribute it and/or modify
   5:usb_xmem.c    ****  it under the terms of the GNU General Public License as published by
   6:usb_xmem.c    ****  the Free Software Foundation, either version 3 of the License, or
   7:usb_xmem.c    ****  (at your option) any later version.
   8:usb_xmem.c    **** 
   9:usb_xmem.c    ****  This program is distributed in the hope that it will be useful,
  10:usb_xmem.c    ****  but WITHOUT ANY WARRANTY; without even the implied warranty of
  11:usb_xmem.c    ****  MERCHANTABILITY or FITNESS FOR A PARTICULAR PURPOSE.  See the
  12:usb_xmem.c    ****  GNU General Public License for more details.
  13:usb_xmem.c    **** 
  14:usb_xmem.c    ****  You should have received a copy of the GNU General Public License
  15:usb_xmem.c    ****  along with this program.  If not, see <http://www.gnu.org/licenses/>.
  16:usb_xmem.c    ****  */
  17:usb_xmem.c    **** 
  18:usb_xmem.c    **** #include <asf.h>
  19:usb_xmem.c    **** #include "usb_xmem.h"
  20:usb_xmem.c    **** 
  21:usb_xmem.c    **** /* Access pointer for FPGA Interface */
  22:usb_xmem.c    **** uint8_t volatile *xram = (uint8_t *) PSRAM_BASE_ADDRESS;
  23:usb_xmem.c    **** 
  24:usb_xmem.c    **** static volatile fpga_lockstatus_t _fpga_locked = fpga_unlocked;
  25:usb_xmem.c    **** 
  26:usb_xmem.c    **** int FPGA_setlock(fpga_lockstatus_t lockstatus)
  27:usb_xmem.c    **** {
  50              	 .loc 1 27 1
  51              	 .cfi_startproc
  52              	 
  53              	 
  54 0000 80B5     	 push {r7,lr}
  55              	.LCFI0:
  56              	 .cfi_def_cfa_offset 8
  57              	 .cfi_offset 7,-8
  58              	 .cfi_offset 14,-4
  59 0002 84B0     	 sub sp,sp,#16
  60              	.LCFI1:
  61              	 .cfi_def_cfa_offset 24
  62 0004 00AF     	 add r7,sp,#0
  63              	.LCFI2:
  64              	 .cfi_def_cfa_register 7
  65 0006 0346     	 mov r3,r0
  66 0008 FB71     	 strb r3,[r7,#7]
  28:usb_xmem.c    ****   int ret = 0;
  67              	 .loc 1 28 7
  68 000a 0023     	 movs r3,#0
  69 000c FB60     	 str r3,[r7,#12]
  29:usb_xmem.c    ****   cpu_irq_enter_critical();
  70              	 .loc 1 29 3
  71 000e 094B     	 ldr r3,.L4
  72 0010 9847     	 blx r3
  73              	.LVL0:
  30:usb_xmem.c    ****   if (_fpga_locked == fpga_unlocked)
  74              	 .loc 1 30 20
  75 0012 094B     	 ldr r3,.L4+4
  76 0014 1B78     	 ldrb r3,[r3]
  77 0016 DBB2     	 uxtb r3,r3
  78              	 .loc 1 30 6
  79 0018 002B     	 cmp r3,#0
  80 001a 04D1     	 bne .L2
  31:usb_xmem.c    ****   {
  32:usb_xmem.c    ****     ret = 1;
  81              	 .loc 1 32 9
  82 001c 0123     	 movs r3,#1
  83 001e FB60     	 str r3,[r7,#12]
  33:usb_xmem.c    ****     _fpga_locked = lockstatus;
  84              	 .loc 1 33 18
  85 0020 054A     	 ldr r2,.L4+4
  86 0022 FB79     	 ldrb r3,[r7,#7]
  87 0024 1370     	 strb r3,[r2]
  88              	.L2:
  34:usb_xmem.c    ****   }
  35:usb_xmem.c    ****   cpu_irq_leave_critical();
  89              	 .loc 1 35 3
  90 0026 054B     	 ldr r3,.L4+8
  91 0028 9847     	 blx r3
  92              	.LVL1:
  36:usb_xmem.c    ****   return ret;
  93              	 .loc 1 36 10
  94 002a FB68     	 ldr r3,[r7,#12]
  37:usb_xmem.c    **** }
  95              	 .loc 1 37 1
  96 002c 1846     	 mov r0,r3
  97 002e 1037     	 adds r7,r7,#16
  98              	.LCFI3:
  99              	 .cfi_def_cfa_offset 8
 100 0030 BD46     	 mov sp,r7
 101              	.LCFI4:
 102              	 .cfi_def_cfa_register 13
 103              	 
 104 0032 80BD     	 pop {r7,pc}
 105              	.L5:
 106              	 .align 2
 107              	.L4:
 108 0034 00000000 	 .word cpu_irq_enter_critical
 109 0038 00000000 	 .word _fpga_locked
 110 003c 00000000 	 .word cpu_irq_leave_critical
 111              	 .cfi_endproc
 112              	.LFE181:
 114              	 .section .text.FPGA_releaselock,"ax",%progbits
 115              	 .align 1
 116              	 .global FPGA_releaselock
 117              	 .syntax unified
 118              	 .thumb
 119              	 .thumb_func
 120              	 .fpu softvfp
 122              	FPGA_releaselock:
 123              	.LFB182:
  38:usb_xmem.c    **** 
  39:usb_xmem.c    **** void FPGA_releaselock(void)
  40:usb_xmem.c    **** {
 124              	 .loc 1 40 1
 125              	 .cfi_startproc
 126              	 
 127              	 
 128              	 
 129 0000 80B4     	 push {r7}
 130              	.LCFI5:
 131              	 .cfi_def_cfa_offset 4
 132              	 .cfi_offset 7,-4
 133 0002 00AF     	 add r7,sp,#0
 134              	.LCFI6:
 135              	 .cfi_def_cfa_register 7
  41:usb_xmem.c    ****   _fpga_locked = fpga_unlocked;
 136              	 .loc 1 41 16
 137 0004 034B     	 ldr r3,.L7
 138 0006 0022     	 movs r2,#0
 139 0008 1A70     	 strb r2,[r3]
  42:usb_xmem.c    **** }
 140              	 .loc 1 42 1
 141 000a 00BF     	 nop
 142 000c BD46     	 mov sp,r7
 143              	.LCFI7:
 144              	 .cfi_def_cfa_register 13
 145              	 
 146 000e 80BC     	 pop {r7}
 147              	.LCFI8:
 148              	 .cfi_restore 7
 149              	 .cfi_def_cfa_offset 0
 150 0010 7047     	 bx lr
 151              	.L8:
 152 0012 00BF     	 .align 2
 153              	.L7:
 154 0014 00000000 	 .word _fpga_locked
 155              	 .cfi_endproc
 156              	.LFE182:
 158              	 .section .text.FPGA_lockstatus,"ax",%progbits
 159              	 .align 1
 160              	 .global FPGA_lockstatus
 161              	 .syntax unified
 162              	 .thumb
 163              	 .thumb_func
 164              	 .fpu softvfp
 166              	FPGA_lockstatus:
 167              	.LFB183:
  43:usb_xmem.c    **** 
  44:usb_xmem.c    **** fpga_lockstatus_t FPGA_lockstatus(void)
  45:usb_xmem.c    **** {
 168              	 .loc 1 45 1
 169              	 .cfi_startproc
 170              	 
 171              	 
 172              	 
 173 0000 80B4     	 push {r7}
 174              	.LCFI9:
 175              	 .cfi_def_cfa_offset 4
 176              	 .cfi_offset 7,-4
 177 0002 00AF     	 add r7,sp,#0
 178              	.LCFI10:
 179              	 .cfi_def_cfa_register 7
  46:usb_xmem.c    ****   return _fpga_locked;
 180              	 .loc 1 46 10
 181 0004 034B     	 ldr r3,.L11
 182 0006 1B78     	 ldrb r3,[r3]
 183 0008 DBB2     	 uxtb r3,r3
  47:usb_xmem.c    **** }
 184              	 .loc 1 47 1
 185 000a 1846     	 mov r0,r3
 186 000c BD46     	 mov sp,r7
 187              	.LCFI11:
 188              	 .cfi_def_cfa_register 13
 189              	 
 190 000e 80BC     	 pop {r7}
 191              	.LCFI12:
 192              	 .cfi_restore 7
 193              	 .cfi_def_cfa_offset 0
 194 0010 7047     	 bx lr
 195              	.L12:
 196 0012 00BF     	 .align 2
 197              	.L11:
 198 0014 00000000 	 .word _fpga_locked
 199              	 .cfi_endproc
 200              	.LFE183:
 202              	 .section .text.try_enter_cs,"ax",%progbits
 203              	 .align 1
 204              	 .global try_enter_cs
 205              	 .syntax unified
 206              	 .thumb
 207              	 .thumb_func
 208              	 .fpu softvfp
 210              	try_enter_cs:
 211              	.LFB184:
  48:usb_xmem.c    **** 
  49:usb_xmem.c    **** int try_enter_cs(void)
  50:usb_xmem.c    **** {
 212              	 .loc 1 50 1
 213              	 .cfi_startproc
 214              	 
 215              	 
 216 0000 80B5     	 push {r7,lr}
 217              	.LCFI13:
 218              	 .cfi_def_cfa_offset 8
 219              	 .cfi_offset 7,-8
 220              	 .cfi_offset 14,-4
 221 0002 00AF     	 add r7,sp,#0
 222              	.LCFI14:
 223              	 .cfi_def_cfa_register 7
  51:usb_xmem.c    ****   // Try to get the lock
  52:usb_xmem.c    ****   cpu_irq_enter_critical();
 224              	 .loc 1 52 3
 225 0004 074B     	 ldr r3,.L16
 226 0006 9847     	 blx r3
 227              	.LVL2:
  53:usb_xmem.c    ****   if(FPGA_setlock(fpga_generic))
 228              	 .loc 1 53 6
 229 0008 0120     	 movs r0,#1
 230 000a 074B     	 ldr r3,.L16+4
 231 000c 9847     	 blx r3
 232              	.LVL3:
 233 000e 0346     	 mov r3,r0
 234              	 .loc 1 53 5
 235 0010 002B     	 cmp r3,#0
 236 0012 01D0     	 beq .L14
  54:usb_xmem.c    ****     return 1;
 237              	 .loc 1 54 12
 238 0014 0123     	 movs r3,#1
 239 0016 02E0     	 b .L15
 240              	.L14:
  55:usb_xmem.c    **** 
  56:usb_xmem.c    ****   // If we didn't get it, revert back
  57:usb_xmem.c    ****   cpu_irq_leave_critical();
 241              	 .loc 1 57 3
 242 0018 044B     	 ldr r3,.L16+8
 243 001a 9847     	 blx r3
 244              	.LVL4:
  58:usb_xmem.c    ****   return 0;
 245              	 .loc 1 58 10
 246 001c 0023     	 movs r3,#0
 247              	.L15:
  59:usb_xmem.c    **** }
 248              	 .loc 1 59 1
 249 001e 1846     	 mov r0,r3
 250 0020 80BD     	 pop {r7,pc}
 251              	.L17:
 252 0022 00BF     	 .align 2
 253              	.L16:
 254 0024 00000000 	 .word cpu_irq_enter_critical
 255 0028 00000000 	 .word FPGA_setlock
 256 002c 00000000 	 .word cpu_irq_leave_critical
 257              	 .cfi_endproc
 258              	.LFE184:
 260              	 .section .text.exit_cs,"ax",%progbits
 261              	 .align 1
 262              	 .global exit_cs
 263              	 .syntax unified
 264              	 .thumb
 265              	 .thumb_func
 266              	 .fpu softvfp
 268              	exit_cs:
 269              	.LFB185:
  60:usb_xmem.c    **** 
  61:usb_xmem.c    **** void exit_cs(void)
  62:usb_xmem.c    **** {
 270              	 .loc 1 62 1
 271              	 .cfi_startproc
 272              	 
 273              	 
 274 0000 80B5     	 push {r7,lr}
 275              	.LCFI15:
 276              	 .cfi_def_cfa_offset 8
 277              	 .cfi_offset 7,-8
 278              	 .cfi_offset 14,-4
 279 0002 00AF     	 add r7,sp,#0
 280              	.LCFI16:
 281              	 .cfi_def_cfa_register 7
  63:usb_xmem.c    ****   FPGA_releaselock();
 282              	 .loc 1 63 3
 283 0004 024B     	 ldr r3,.L19
 284 0006 9847     	 blx r3
 285              	.LVL5:
  64:usb_xmem.c    ****   cpu_irq_leave_critical();
 286              	 .loc 1 64 3
 287 0008 024B     	 ldr r3,.L19+4
 288 000a 9847     	 blx r3
 289              	.LVL6:
  65:usb_xmem.c    **** }
 290              	 .loc 1 65 1
 291 000c 00BF     	 nop
 292 000e 80BD     	 pop {r7,pc}
 293              	.L20:
 294              	 .align 2
 295              	.L19:
 296 0010 00000000 	 .word FPGA_releaselock
 297 0014 00000000 	 .word cpu_irq_leave_critical
 298              	 .cfi_endproc
 299              	.LFE185:
 301              	 .section .text.FPGA_setaddr,"ax",%progbits
 302              	 .align 1
 303              	 .global FPGA_setaddr
 304              	 .syntax unified
 305              	 .thumb
 306              	 .thumb_func
 307              	 .fpu softvfp
 309              	FPGA_setaddr:
 310              	.LFB186:
  66:usb_xmem.c    **** 
  67:usb_xmem.c    **** void FPGA_setaddr(uint32_t addr)
  68:usb_xmem.c    **** {
 311              	 .loc 1 68 1
 312              	 .cfi_startproc
 313              	 
 314              	 
 315 0000 80B5     	 push {r7,lr}
 316              	.LCFI17:
 317              	 .cfi_def_cfa_offset 8
 318              	 .cfi_offset 7,-8
 319              	 .cfi_offset 14,-4
 320 0002 82B0     	 sub sp,sp,#8
 321              	.LCFI18:
 322              	 .cfi_def_cfa_offset 16
 323 0004 00AF     	 add r7,sp,#0
 324              	.LCFI19:
 325              	 .cfi_def_cfa_register 7
 326 0006 7860     	 str r0,[r7,#4]
  69:usb_xmem.c    ****   FPGA_ADDR_PORT->PIO_ODSR = (FPGA_ADDR_PORT->PIO_ODSR & 0x40) | (addr & 0x3F) | ((addr & 0xC0) << 
 327              	 .loc 1 69 45
 328 0008 0C4B     	 ldr r3,.L22
 329 000a 9B6B     	 ldr r3,[r3,#56]
 330              	 .loc 1 69 56
 331 000c 03F04002 	 and r2,r3,#64
 332              	 .loc 1 69 72
 333 0010 7B68     	 ldr r3,[r7,#4]
 334 0012 03F03F03 	 and r3,r3,#63
 335              	 .loc 1 69 64
 336 0016 1A43     	 orrs r2,r2,r3
 337              	 .loc 1 69 97
 338 0018 7B68     	 ldr r3,[r7,#4]
 339 001a 5B00     	 lsls r3,r3,#1
 340 001c 03F4C073 	 and r3,r3,#384
 341              	 .loc 1 69 17
 342 0020 0649     	 ldr r1,.L22
 343              	 .loc 1 69 80
 344 0022 1343     	 orrs r3,r3,r2
 345              	 .loc 1 69 28
 346 0024 8B63     	 str r3,[r1,#56]
  70:usb_xmem.c    ****   gpio_set_pin_low(PIN_EBI_USB_SPARE1);
 347              	 .loc 1 70 3
 348 0026 3120     	 movs r0,#49
 349 0028 054B     	 ldr r3,.L22+4
 350 002a 9847     	 blx r3
 351              	.LVL7:
  71:usb_xmem.c    ****   gpio_set_pin_high(PIN_EBI_USB_SPARE1);
 352              	 .loc 1 71 3
 353 002c 3120     	 movs r0,#49
 354 002e 054B     	 ldr r3,.L22+8
 355 0030 9847     	 blx r3
 356              	.LVL8:
  72:usb_xmem.c    **** }
 357              	 .loc 1 72 1
 358 0032 00BF     	 nop
 359 0034 0837     	 adds r7,r7,#8
 360              	.LCFI20:
 361              	 .cfi_def_cfa_offset 8
 362 0036 BD46     	 mov sp,r7
 363              	.LCFI21:
 364              	 .cfi_def_cfa_register 13
 365              	 
 366 0038 80BD     	 pop {r7,pc}
 367              	.L23:
 368 003a 00BF     	 .align 2
 369              	.L22:
 370 003c 000E0E40 	 .word 1074662912
 371 0040 00000000 	 .word pio_set_pin_low
 372 0044 00000000 	 .word pio_set_pin_high
 373              	 .cfi_endproc
 374              	.LFE186:
 376              	 .section .text.unsafe_readuint32,"ax",%progbits
 377              	 .align 1
 378              	 .global unsafe_readuint32
 379              	 .syntax unified
 380              	 .thumb
 381              	 .thumb_func
 382              	 .fpu softvfp
 384              	unsafe_readuint32:
 385              	.LFB187:
  73:usb_xmem.c    **** 
  74:usb_xmem.c    **** /*
  75:usb_xmem.c    **** Read four bytes from a given register, return as 32-bit number.
  76:usb_xmem.c    **** 
  77:usb_xmem.c    **** "Unsafe" as doesn't check/modify locking status.
  78:usb_xmem.c    **** */
  79:usb_xmem.c    **** uint32_t unsafe_readuint32(uint16_t fpgaaddr)
  80:usb_xmem.c    **** {
 386              	 .loc 1 80 1
 387              	 .cfi_startproc
 388              	 
 389              	 
 390 0000 80B5     	 push {r7,lr}
 391              	.LCFI22:
 392              	 .cfi_def_cfa_offset 8
 393              	 .cfi_offset 7,-8
 394              	 .cfi_offset 14,-4
 395 0002 84B0     	 sub sp,sp,#16
 396              	.LCFI23:
 397              	 .cfi_def_cfa_offset 24
 398 0004 00AF     	 add r7,sp,#0
 399              	.LCFI24:
 400              	 .cfi_def_cfa_register 7
 401 0006 0346     	 mov r3,r0
 402 0008 FB80     	 strh r3,[r7,#6]
  81:usb_xmem.c    ****   uint32_t data;
  82:usb_xmem.c    **** 
  83:usb_xmem.c    ****   FPGA_setaddr(fpgaaddr);
 403              	 .loc 1 83 3
 404 000a FB88     	 ldrh r3,[r7,#6]
 405 000c 1846     	 mov r0,r3
 406 000e 154B     	 ldr r3,.L26
 407 0010 9847     	 blx r3
 408              	.LVL9:
  84:usb_xmem.c    ****   data = *xram;
 409              	 .loc 1 84 10
 410 0012 154B     	 ldr r3,.L26+4
 411 0014 1B68     	 ldr r3,[r3]
 412 0016 1B78     	 ldrb r3,[r3]
 413 0018 DBB2     	 uxtb r3,r3
 414              	 .loc 1 84 8
 415 001a FB60     	 str r3,[r7,#12]
  85:usb_xmem.c    ****   data |= *(xram+1) << 8;
 416              	 .loc 1 85 17
 417 001c 124B     	 ldr r3,.L26+4
 418 001e 1B68     	 ldr r3,[r3]
 419 0020 0133     	 adds r3,r3,#1
 420              	 .loc 1 85 11
 421 0022 1B78     	 ldrb r3,[r3]
 422 0024 DBB2     	 uxtb r3,r3
 423              	 .loc 1 85 21
 424 0026 1B02     	 lsls r3,r3,#8
 425 0028 1A46     	 mov r2,r3
 426              	 .loc 1 85 8
 427 002a FB68     	 ldr r3,[r7,#12]
 428 002c 1343     	 orrs r3,r3,r2
 429 002e FB60     	 str r3,[r7,#12]
  86:usb_xmem.c    ****   data |= *(xram+2) << 16;
 430              	 .loc 1 86 17
 431 0030 0D4B     	 ldr r3,.L26+4
 432 0032 1B68     	 ldr r3,[r3]
 433 0034 0233     	 adds r3,r3,#2
 434              	 .loc 1 86 11
 435 0036 1B78     	 ldrb r3,[r3]
 436 0038 DBB2     	 uxtb r3,r3
 437              	 .loc 1 86 21
 438 003a 1B04     	 lsls r3,r3,#16
 439 003c 1A46     	 mov r2,r3
 440              	 .loc 1 86 8
 441 003e FB68     	 ldr r3,[r7,#12]
 442 0040 1343     	 orrs r3,r3,r2
 443 0042 FB60     	 str r3,[r7,#12]
  87:usb_xmem.c    ****   data |= *(xram+3) << 24;
 444              	 .loc 1 87 17
 445 0044 084B     	 ldr r3,.L26+4
 446 0046 1B68     	 ldr r3,[r3]
 447 0048 0333     	 adds r3,r3,#3
 448              	 .loc 1 87 11
 449 004a 1B78     	 ldrb r3,[r3]
 450 004c DBB2     	 uxtb r3,r3
 451              	 .loc 1 87 21
 452 004e 1B06     	 lsls r3,r3,#24
 453 0050 1A46     	 mov r2,r3
 454              	 .loc 1 87 8
 455 0052 FB68     	 ldr r3,[r7,#12]
 456 0054 1343     	 orrs r3,r3,r2
 457 0056 FB60     	 str r3,[r7,#12]
  88:usb_xmem.c    ****   return data;
 458              	 .loc 1 88 10
 459 0058 FB68     	 ldr r3,[r7,#12]
  89:usb_xmem.c    **** }
 460              	 .loc 1 89 1
 461 005a 1846     	 mov r0,r3
 462 005c 1037     	 adds r7,r7,#16
 463              	.LCFI25:
 464              	 .cfi_def_cfa_offset 8
 465 005e BD46     	 mov sp,r7
 466              	.LCFI26:
 467              	 .cfi_def_cfa_register 13
 468              	 
 469 0060 80BD     	 pop {r7,pc}
 470              	.L27:
 471 0062 00BF     	 .align 2
 472              	.L26:
 473 0064 00000000 	 .word FPGA_setaddr
 474 0068 00000000 	 .word xram
 475              	 .cfi_endproc
 476              	.LFE187:
 478              	 .section .text.safe_readuint32,"ax",%progbits
 479              	 .align 1
 480              	 .global safe_readuint32
 481              	 .syntax unified
 482              	 .thumb
 483              	 .thumb_func
 484              	 .fpu softvfp
 486              	safe_readuint32:
 487              	.LFB188:
  90:usb_xmem.c    **** 
  91:usb_xmem.c    **** uint32_t safe_readuint32(uint16_t fpgaaddr)
  92:usb_xmem.c    **** {
 488              	 .loc 1 92 1
 489              	 .cfi_startproc
 490              	 
 491              	 
 492 0000 80B5     	 push {r7,lr}
 493              	.LCFI27:
 494              	 .cfi_def_cfa_offset 8
 495              	 .cfi_offset 7,-8
 496              	 .cfi_offset 14,-4
 497 0002 84B0     	 sub sp,sp,#16
 498              	.LCFI28:
 499              	 .cfi_def_cfa_offset 24
 500 0004 00AF     	 add r7,sp,#0
 501              	.LCFI29:
 502              	 .cfi_def_cfa_register 7
 503 0006 0346     	 mov r3,r0
 504 0008 FB80     	 strh r3,[r7,#6]
  93:usb_xmem.c    ****   //TODO - This timeout to make GUI responsive in case of USB errors, but data will be invalid
  94:usb_xmem.c    ****   uint32_t timeout = 10000;
 505              	 .loc 1 94 12
 506 000a 42F21073 	 movw r3,#10000
 507 000e FB60     	 str r3,[r7,#12]
 508              	.L31:
  95:usb_xmem.c    ****   do{
  96:usb_xmem.c    ****     timeout--;
 509              	 .loc 1 96 12
 510 0010 FB68     	 ldr r3,[r7,#12]
 511 0012 013B     	 subs r3,r3,#1
 512 0014 FB60     	 str r3,[r7,#12]
  97:usb_xmem.c    ****     if(timeout == 0){return 0xffffffff;};
 513              	 .loc 1 97 7
 514 0016 FB68     	 ldr r3,[r7,#12]
 515 0018 002B     	 cmp r3,#0
 516 001a 02D1     	 bne .L29
 517              	 .loc 1 97 29 discriminator 1
 518 001c 4FF0FF33 	 mov r3,#-1
 519 0020 2EE0     	 b .L30
 520              	.L29:
  98:usb_xmem.c    ****   }while(!try_enter_cs());
 521              	 .loc 1 98 11
 522 0022 194B     	 ldr r3,.L32
 523 0024 9847     	 blx r3
 524              	.LVL10:
 525 0026 0346     	 mov r3,r0
 526              	 .loc 1 98 3
 527 0028 002B     	 cmp r3,#0
 528 002a F1D0     	 beq .L31
  99:usb_xmem.c    ****   uint32_t data;
 100:usb_xmem.c    **** 
 101:usb_xmem.c    ****   FPGA_setaddr(fpgaaddr);
 529              	 .loc 1 101 3
 530 002c FB88     	 ldrh r3,[r7,#6]
 531 002e 1846     	 mov r0,r3
 532 0030 164B     	 ldr r3,.L32+4
 533 0032 9847     	 blx r3
 534              	.LVL11:
 102:usb_xmem.c    ****   data = *xram;
 535              	 .loc 1 102 10
 536 0034 164B     	 ldr r3,.L32+8
 537 0036 1B68     	 ldr r3,[r3]
 538 0038 1B78     	 ldrb r3,[r3]
 539 003a DBB2     	 uxtb r3,r3
 540              	 .loc 1 102 8
 541 003c BB60     	 str r3,[r7,#8]
 103:usb_xmem.c    ****   data |= *(xram+1) << 8;
 542              	 .loc 1 103 17
 543 003e 144B     	 ldr r3,.L32+8
 544 0040 1B68     	 ldr r3,[r3]
 545 0042 0133     	 adds r3,r3,#1
 546              	 .loc 1 103 11
 547 0044 1B78     	 ldrb r3,[r3]
 548 0046 DBB2     	 uxtb r3,r3
 549              	 .loc 1 103 21
 550 0048 1B02     	 lsls r3,r3,#8
 551 004a 1A46     	 mov r2,r3
 552              	 .loc 1 103 8
 553 004c BB68     	 ldr r3,[r7,#8]
 554 004e 1343     	 orrs r3,r3,r2
 555 0050 BB60     	 str r3,[r7,#8]
 104:usb_xmem.c    ****   data |= *(xram+2) << 16;
 556              	 .loc 1 104 17
 557 0052 0F4B     	 ldr r3,.L32+8
 558 0054 1B68     	 ldr r3,[r3]
 559 0056 0233     	 adds r3,r3,#2
 560              	 .loc 1 104 11
 561 0058 1B78     	 ldrb r3,[r3]
 562 005a DBB2     	 uxtb r3,r3
 563              	 .loc 1 104 21
 564 005c 1B04     	 lsls r3,r3,#16
 565 005e 1A46     	 mov r2,r3
 566              	 .loc 1 104 8
 567 0060 BB68     	 ldr r3,[r7,#8]
 568 0062 1343     	 orrs r3,r3,r2
 569 0064 BB60     	 str r3,[r7,#8]
 105:usb_xmem.c    ****   data |= *(xram+3) << 24;
 570              	 .loc 1 105 17
 571 0066 0A4B     	 ldr r3,.L32+8
 572 0068 1B68     	 ldr r3,[r3]
 573 006a 0333     	 adds r3,r3,#3
 574              	 .loc 1 105 11
 575 006c 1B78     	 ldrb r3,[r3]
 576 006e DBB2     	 uxtb r3,r3
 577              	 .loc 1 105 21
 578 0070 1B06     	 lsls r3,r3,#24
 579 0072 1A46     	 mov r2,r3
 580              	 .loc 1 105 8
 581 0074 BB68     	 ldr r3,[r7,#8]
 582 0076 1343     	 orrs r3,r3,r2
 583 0078 BB60     	 str r3,[r7,#8]
 106:usb_xmem.c    ****   exit_cs();
 584              	 .loc 1 106 3
 585 007a 064B     	 ldr r3,.L32+12
 586 007c 9847     	 blx r3
 587              	.LVL12:
 107:usb_xmem.c    ****   return data;
 588              	 .loc 1 107 10
 589 007e BB68     	 ldr r3,[r7,#8]
 590              	.L30:
 108:usb_xmem.c    **** }
 591              	 .loc 1 108 1
 592 0080 1846     	 mov r0,r3
 593 0082 1037     	 adds r7,r7,#16
 594              	.LCFI30:
 595              	 .cfi_def_cfa_offset 8
 596 0084 BD46     	 mov sp,r7
 597              	.LCFI31:
 598              	 .cfi_def_cfa_register 13
 599              	 
 600 0086 80BD     	 pop {r7,pc}
 601              	.L33:
 602              	 .align 2
 603              	.L32:
 604 0088 00000000 	 .word try_enter_cs
 605 008c 00000000 	 .word FPGA_setaddr
 606 0090 00000000 	 .word xram
 607 0094 00000000 	 .word exit_cs
 608              	 .cfi_endproc
 609              	.LFE188:
 611              	 .section .text.unsafe_readbytes,"ax",%progbits
 612              	 .align 1
 613              	 .global unsafe_readbytes
 614              	 .syntax unified
 615              	 .thumb
 616              	 .thumb_func
 617              	 .fpu softvfp
 619              	unsafe_readbytes:
 620              	.LFB189:
 109:usb_xmem.c    **** 
 110:usb_xmem.c    **** 
 111:usb_xmem.c    **** 
 112:usb_xmem.c    **** // Read numBytes bytes from memory
 113:usb_xmem.c    **** void unsafe_readbytes(uint16_t fpgaaddr, uint8_t* data, int numBytes)
 114:usb_xmem.c    **** {
 621              	 .loc 1 114 1
 622              	 .cfi_startproc
 623              	 
 624              	 
 625 0000 80B5     	 push {r7,lr}
 626              	.LCFI32:
 627              	 .cfi_def_cfa_offset 8
 628              	 .cfi_offset 7,-8
 629              	 .cfi_offset 14,-4
 630 0002 86B0     	 sub sp,sp,#24
 631              	.LCFI33:
 632              	 .cfi_def_cfa_offset 32
 633 0004 00AF     	 add r7,sp,#0
 634              	.LCFI34:
 635              	 .cfi_def_cfa_register 7
 636 0006 0346     	 mov r3,r0
 637 0008 B960     	 str r1,[r7,#8]
 638 000a 7A60     	 str r2,[r7,#4]
 639 000c FB81     	 strh r3,[r7,#14]
 115:usb_xmem.c    ****   FPGA_setaddr(fpgaaddr);
 640              	 .loc 1 115 3
 641 000e FB89     	 ldrh r3,[r7,#14]
 642 0010 1846     	 mov r0,r3
 643 0012 0D4B     	 ldr r3,.L37
 644 0014 9847     	 blx r3
 645              	.LVL13:
 646              	.LBB2:
 116:usb_xmem.c    **** 
 117:usb_xmem.c    ****   for(int i = 0; i < numBytes; i++)
 647              	 .loc 1 117 11
 648 0016 0023     	 movs r3,#0
 649 0018 7B61     	 str r3,[r7,#20]
 650              	 .loc 1 117 3
 651 001a 0CE0     	 b .L35
 652              	.L36:
 118:usb_xmem.c    ****   {
 119:usb_xmem.c    ****     data[i] = *(xram+i);
 653              	 .loc 1 119 21 discriminator 3
 654 001c 0B4B     	 ldr r3,.L37+4
 655 001e 1A68     	 ldr r2,[r3]
 656 0020 7B69     	 ldr r3,[r7,#20]
 657 0022 1A44     	 add r2,r2,r3
 658              	 .loc 1 119 9 discriminator 3
 659 0024 7B69     	 ldr r3,[r7,#20]
 660 0026 B968     	 ldr r1,[r7,#8]
 661 0028 0B44     	 add r3,r3,r1
 662              	 .loc 1 119 15 discriminator 3
 663 002a 1278     	 ldrb r2,[r2]
 664 002c D2B2     	 uxtb r2,r2
 665              	 .loc 1 119 13 discriminator 3
 666 002e 1A70     	 strb r2,[r3]
 117:usb_xmem.c    ****   {
 667              	 .loc 1 117 33 discriminator 3
 668 0030 7B69     	 ldr r3,[r7,#20]
 669 0032 0133     	 adds r3,r3,#1
 670 0034 7B61     	 str r3,[r7,#20]
 671              	.L35:
 117:usb_xmem.c    ****   {
 672              	 .loc 1 117 3 discriminator 1
 673 0036 7A69     	 ldr r2,[r7,#20]
 674 0038 7B68     	 ldr r3,[r7,#4]
 675 003a 9A42     	 cmp r2,r3
 676 003c EEDB     	 blt .L36
 677              	.LBE2:
 120:usb_xmem.c    ****   }
 121:usb_xmem.c    **** }
 678              	 .loc 1 121 1
 679 003e 00BF     	 nop
 680 0040 00BF     	 nop
 681 0042 1837     	 adds r7,r7,#24
 682              	.LCFI35:
 683              	 .cfi_def_cfa_offset 8
 684 0044 BD46     	 mov sp,r7
 685              	.LCFI36:
 686              	 .cfi_def_cfa_register 13
 687              	 
 688 0046 80BD     	 pop {r7,pc}
 689              	.L38:
 690              	 .align 2
 691              	.L37:
 692 0048 00000000 	 .word FPGA_setaddr
 693 004c 00000000 	 .word xram
 694              	 .cfi_endproc
 695              	.LFE189:
 697              	 .section .text.safe_readbytes,"ax",%progbits
 698              	 .align 1
 699              	 .global safe_readbytes
 700              	 .syntax unified
 701              	 .thumb
 702              	 .thumb_func
 703              	 .fpu softvfp
 705              	safe_readbytes:
 706              	.LFB190:
 122:usb_xmem.c    **** 
 123:usb_xmem.c    **** // Safely read bytes from memory by disabling interrupts first
 124:usb_xmem.c    **** // Blocks until able to read
 125:usb_xmem.c    **** void safe_readbytes(uint16_t fpgaaddr, uint8_t* data, int numBytes)
 126:usb_xmem.c    **** {
 707              	 .loc 1 126 1
 708              	 .cfi_startproc
 709              	 
 710              	 
 711 0000 80B5     	 push {r7,lr}
 712              	.LCFI37:
 713              	 .cfi_def_cfa_offset 8
 714              	 .cfi_offset 7,-8
 715              	 .cfi_offset 14,-4
 716 0002 86B0     	 sub sp,sp,#24
 717              	.LCFI38:
 718              	 .cfi_def_cfa_offset 32
 719 0004 00AF     	 add r7,sp,#0
 720              	.LCFI39:
 721              	 .cfi_def_cfa_register 7
 722 0006 0346     	 mov r3,r0
 723 0008 B960     	 str r1,[r7,#8]
 724 000a 7A60     	 str r2,[r7,#4]
 725 000c FB81     	 strh r3,[r7,#14]
 127:usb_xmem.c    ****   //TODO - This timeout to make GUI responsive in case of USB errors, but data will be invalid
 128:usb_xmem.c    ****   uint32_t timeout = 10000;
 726              	 .loc 1 128 12
 727 000e 42F21073 	 movw r3,#10000
 728 0012 7B61     	 str r3,[r7,#20]
 729              	.L42:
 129:usb_xmem.c    ****   do{
 130:usb_xmem.c    ****     timeout--;
 730              	 .loc 1 130 12
 731 0014 7B69     	 ldr r3,[r7,#20]
 732 0016 013B     	 subs r3,r3,#1
 733 0018 7B61     	 str r3,[r7,#20]
 131:usb_xmem.c    ****     if(timeout == 0){*data = 0xFF; return;};
 734              	 .loc 1 131 7
 735 001a 7B69     	 ldr r3,[r7,#20]
 736 001c 002B     	 cmp r3,#0
 737 001e 03D1     	 bne .L40
 738              	 .loc 1 131 28 discriminator 1
 739 0020 BB68     	 ldr r3,[r7,#8]
 740 0022 FF22     	 movs r2,#255
 741 0024 1A70     	 strb r2,[r3]
 742              	 .loc 1 131 36 discriminator 1
 743 0026 1EE0     	 b .L39
 744              	.L40:
 132:usb_xmem.c    ****   }while(!try_enter_cs());
 745              	 .loc 1 132 11
 746 0028 104B     	 ldr r3,.L45
 747 002a 9847     	 blx r3
 748              	.LVL14:
 749 002c 0346     	 mov r3,r0
 750              	 .loc 1 132 3
 751 002e 002B     	 cmp r3,#0
 752 0030 F0D0     	 beq .L42
 133:usb_xmem.c    **** 
 134:usb_xmem.c    ****   FPGA_setaddr(fpgaaddr);
 753              	 .loc 1 134 3
 754 0032 FB89     	 ldrh r3,[r7,#14]
 755 0034 1846     	 mov r0,r3
 756 0036 0E4B     	 ldr r3,.L45+4
 757 0038 9847     	 blx r3
 758              	.LVL15:
 759              	.LBB3:
 135:usb_xmem.c    **** 
 136:usb_xmem.c    ****   for(int i = 0; i < numBytes; i++)
 760              	 .loc 1 136 11
 761 003a 0023     	 movs r3,#0
 762 003c 3B61     	 str r3,[r7,#16]
 763              	 .loc 1 136 3
 764 003e 0CE0     	 b .L43
 765              	.L44:
 137:usb_xmem.c    ****   {
 138:usb_xmem.c    ****     data[i] = *(xram+i);
 766              	 .loc 1 138 21 discriminator 3
 767 0040 0C4B     	 ldr r3,.L45+8
 768 0042 1A68     	 ldr r2,[r3]
 769 0044 3B69     	 ldr r3,[r7,#16]
 770 0046 1A44     	 add r2,r2,r3
 771              	 .loc 1 138 9 discriminator 3
 772 0048 3B69     	 ldr r3,[r7,#16]
 773 004a B968     	 ldr r1,[r7,#8]
 774 004c 0B44     	 add r3,r3,r1
 775              	 .loc 1 138 15 discriminator 3
 776 004e 1278     	 ldrb r2,[r2]
 777 0050 D2B2     	 uxtb r2,r2
 778              	 .loc 1 138 13 discriminator 3
 779 0052 1A70     	 strb r2,[r3]
 136:usb_xmem.c    ****   {
 780              	 .loc 1 136 33 discriminator 3
 781 0054 3B69     	 ldr r3,[r7,#16]
 782 0056 0133     	 adds r3,r3,#1
 783 0058 3B61     	 str r3,[r7,#16]
 784              	.L43:
 136:usb_xmem.c    ****   {
 785              	 .loc 1 136 3 discriminator 1
 786 005a 3A69     	 ldr r2,[r7,#16]
 787 005c 7B68     	 ldr r3,[r7,#4]
 788 005e 9A42     	 cmp r2,r3
 789 0060 EEDB     	 blt .L44
 790              	.LBE3:
 139:usb_xmem.c    ****   }
 140:usb_xmem.c    ****   exit_cs();
 791              	 .loc 1 140 3
 792 0062 054B     	 ldr r3,.L45+12
 793 0064 9847     	 blx r3
 794              	.LVL16:
 795              	.L39:
 141:usb_xmem.c    **** }
 796              	 .loc 1 141 1
 797 0066 1837     	 adds r7,r7,#24
 798              	.LCFI40:
 799              	 .cfi_def_cfa_offset 8
 800 0068 BD46     	 mov sp,r7
 801              	.LCFI41:
 802              	 .cfi_def_cfa_register 13
 803              	 
 804 006a 80BD     	 pop {r7,pc}
 805              	.L46:
 806              	 .align 2
 807              	.L45:
 808 006c 00000000 	 .word try_enter_cs
 809 0070 00000000 	 .word FPGA_setaddr
 810 0074 00000000 	 .word xram
 811 0078 00000000 	 .word exit_cs
 812              	 .cfi_endproc
 813              	.LFE190:
 815              	 .section .text.unsafe_writebytes,"ax",%progbits
 816              	 .align 1
 817              	 .global unsafe_writebytes
 818              	 .syntax unified
 819              	 .thumb
 820              	 .thumb_func
 821              	 .fpu softvfp
 823              	unsafe_writebytes:
 824              	.LFB191:
 142:usb_xmem.c    **** 
 143:usb_xmem.c    **** // Write 4 bytes to memory
 144:usb_xmem.c    **** void unsafe_writebytes(uint16_t fpgaaddr, uint8_t* data, int numBytes)
 145:usb_xmem.c    **** {
 825              	 .loc 1 145 1
 826              	 .cfi_startproc
 827              	 
 828              	 
 829 0000 80B5     	 push {r7,lr}
 830              	.LCFI42:
 831              	 .cfi_def_cfa_offset 8
 832              	 .cfi_offset 7,-8
 833              	 .cfi_offset 14,-4
 834 0002 86B0     	 sub sp,sp,#24
 835              	.LCFI43:
 836              	 .cfi_def_cfa_offset 32
 837 0004 00AF     	 add r7,sp,#0
 838              	.LCFI44:
 839              	 .cfi_def_cfa_register 7
 840 0006 0346     	 mov r3,r0
 841 0008 B960     	 str r1,[r7,#8]
 842 000a 7A60     	 str r2,[r7,#4]
 843 000c FB81     	 strh r3,[r7,#14]
 146:usb_xmem.c    ****   FPGA_setaddr(fpgaaddr);
 844              	 .loc 1 146 3
 845 000e FB89     	 ldrh r3,[r7,#14]
 846 0010 1846     	 mov r0,r3
 847 0012 0D4B     	 ldr r3,.L50
 848 0014 9847     	 blx r3
 849              	.LVL17:
 850              	.LBB4:
 147:usb_xmem.c    **** 
 148:usb_xmem.c    ****   for(int i = 0; i < numBytes; i++)
 851              	 .loc 1 148 11
 852 0016 0023     	 movs r3,#0
 853 0018 7B61     	 str r3,[r7,#20]
 854              	 .loc 1 148 3
 855 001a 0BE0     	 b .L48
 856              	.L49:
 149:usb_xmem.c    ****   {
 150:usb_xmem.c    ****     *(xram+i) = data[i];
 857              	 .loc 1 150 21 discriminator 3
 858 001c 7B69     	 ldr r3,[r7,#20]
 859 001e BA68     	 ldr r2,[r7,#8]
 860 0020 1A44     	 add r2,r2,r3
 861              	 .loc 1 150 11 discriminator 3
 862 0022 0A4B     	 ldr r3,.L50+4
 863 0024 1968     	 ldr r1,[r3]
 864 0026 7B69     	 ldr r3,[r7,#20]
 865 0028 0B44     	 add r3,r3,r1
 866              	 .loc 1 150 21 discriminator 3
 867 002a 1278     	 ldrb r2,[r2]
 868              	 .loc 1 150 15 discriminator 3
 869 002c 1A70     	 strb r2,[r3]
 148:usb_xmem.c    ****   {
 870              	 .loc 1 148 33 discriminator 3
 871 002e 7B69     	 ldr r3,[r7,#20]
 872 0030 0133     	 adds r3,r3,#1
 873 0032 7B61     	 str r3,[r7,#20]
 874              	.L48:
 148:usb_xmem.c    ****   {
 875              	 .loc 1 148 3 discriminator 1
 876 0034 7A69     	 ldr r2,[r7,#20]
 877 0036 7B68     	 ldr r3,[r7,#4]
 878 0038 9A42     	 cmp r2,r3
 879 003a EFDB     	 blt .L49
 880              	.LBE4:
 151:usb_xmem.c    ****   }
 152:usb_xmem.c    **** }
 881              	 .loc 1 152 1
 882 003c 00BF     	 nop
 883 003e 00BF     	 nop
 884 0040 1837     	 adds r7,r7,#24
 885              	.LCFI45:
 886              	 .cfi_def_cfa_offset 8
 887 0042 BD46     	 mov sp,r7
 888              	.LCFI46:
 889              	 .cfi_def_cfa_register 13
 890              	 
 891 0044 80BD     	 pop {r7,pc}
 892              	.L51:
 893 0046 00BF     	 .align 2
 894              	.L50:
 895 0048 00000000 	 .word FPGA_setaddr
 896 004c 00000000 	 .word xram
 897              	 .cfi_endproc
 898              	.LFE191:
 900              	 .section .text.smc_normaltiming,"ax",%progbits
 901              	 .align 1
 902              	 .global smc_normaltiming
 903              	 .syntax unified
 904              	 .thumb
 905              	 .thumb_func
 906              	 .fpu softvfp
 908              	smc_normaltiming:
 909              	.LFB192:
 153:usb_xmem.c    **** 
 154:usb_xmem.c    **** //Set timing for normal mode
 155:usb_xmem.c    **** void smc_normaltiming(void){
 910              	 .loc 1 155 28
 911              	 .cfi_startproc
 912              	 
 913              	 
 914 0000 80B5     	 push {r7,lr}
 915              	.LCFI47:
 916              	 .cfi_def_cfa_offset 8
 917              	 .cfi_offset 7,-8
 918              	 .cfi_offset 14,-4
 919 0002 00AF     	 add r7,sp,#0
 920              	.LCFI48:
 921              	 .cfi_def_cfa_register 7
 156:usb_xmem.c    ****   smc_set_setup_timing(SMC, 0,
 922              	 .loc 1 156 3
 923 0004 4FF48072 	 mov r2,#256
 924 0008 0021     	 movs r1,#0
 925 000a 0A48     	 ldr r0,.L53
 926 000c 0A4B     	 ldr r3,.L53+4
 927 000e 9847     	 blx r3
 928              	.LVL18:
 157:usb_xmem.c    ****   SMC_SETUP_NWE_SETUP(0) |
 158:usb_xmem.c    ****   SMC_SETUP_NCS_WR_SETUP(1) |
 159:usb_xmem.c    ****   SMC_SETUP_NRD_SETUP(0) |
 160:usb_xmem.c    ****   SMC_SETUP_NCS_RD_SETUP(0)
 161:usb_xmem.c    ****   );
 162:usb_xmem.c    **** 
 163:usb_xmem.c    ****   smc_set_pulse_timing(SMC, 0,
 929              	 .loc 1 163 3
 930 0010 0A4A     	 ldr r2,.L53+8
 931 0012 0021     	 movs r1,#0
 932 0014 0748     	 ldr r0,.L53
 933 0016 0A4B     	 ldr r3,.L53+12
 934 0018 9847     	 blx r3
 935              	.LVL19:
 164:usb_xmem.c    ****   SMC_PULSE_NWE_PULSE(1) |
 165:usb_xmem.c    ****   SMC_PULSE_NCS_WR_PULSE(1) |
 166:usb_xmem.c    ****   SMC_PULSE_NRD_PULSE(4) |
 167:usb_xmem.c    ****   SMC_PULSE_NCS_RD_PULSE(4)
 168:usb_xmem.c    ****   );
 169:usb_xmem.c    **** 
 170:usb_xmem.c    ****   smc_set_cycle_timing(SMC, 0,
 936              	 .loc 1 170 3
 937 001a 0A4A     	 ldr r2,.L53+16
 938 001c 0021     	 movs r1,#0
 939 001e 0548     	 ldr r0,.L53
 940 0020 094B     	 ldr r3,.L53+20
 941 0022 9847     	 blx r3
 942              	.LVL20:
 171:usb_xmem.c    ****   SMC_CYCLE_NWE_CYCLE(2) |
 172:usb_xmem.c    ****   SMC_CYCLE_NRD_CYCLE(5)
 173:usb_xmem.c    ****   );
 174:usb_xmem.c    **** 
 175:usb_xmem.c    ****   smc_set_mode(SMC, 0,
 943              	 .loc 1 175 3
 944 0024 0322     	 movs r2,#3
 945 0026 0021     	 movs r1,#0
 946 0028 0248     	 ldr r0,.L53
 947 002a 084B     	 ldr r3,.L53+24
 948 002c 9847     	 blx r3
 949              	.LVL21:
 176:usb_xmem.c    ****   SMC_MODE_READ_MODE_NRD_CTRL |
 177:usb_xmem.c    ****   SMC_MODE_WRITE_MODE_NWE_CTRL |
 178:usb_xmem.c    ****   SMC_MODE_DBW_BIT_8
 179:usb_xmem.c    ****   );
 180:usb_xmem.c    **** }
 950              	 .loc 1 180 1
 951 002e 00BF     	 nop
 952 0030 80BD     	 pop {r7,pc}
 953              	.L54:
 954 0032 00BF     	 .align 2
 955              	.L53:
 956 0034 00000E40 	 .word 1074659328
 957 0038 00000000 	 .word smc_set_setup_timing
 958 003c 01010404 	 .word 67371265
 959 0040 00000000 	 .word smc_set_pulse_timing
 960 0044 02000500 	 .word 327682
 961 0048 00000000 	 .word smc_set_cycle_timing
 962 004c 00000000 	 .word smc_set_mode
 963              	 .cfi_endproc
 964              	.LFE192:
 966              	 .section .text.smc_fasttiming,"ax",%progbits
 967              	 .align 1
 968              	 .global smc_fasttiming
 969              	 .syntax unified
 970              	 .thumb
 971              	 .thumb_func
 972              	 .fpu softvfp
 974              	smc_fasttiming:
 975              	.LFB193:
 181:usb_xmem.c    **** 
 182:usb_xmem.c    **** void smc_fasttiming(void){
 976              	 .loc 1 182 26
 977              	 .cfi_startproc
 978              	 
 979              	 
 980 0000 80B5     	 push {r7,lr}
 981              	.LCFI49:
 982              	 .cfi_def_cfa_offset 8
 983              	 .cfi_offset 7,-8
 984              	 .cfi_offset 14,-4
 985 0002 00AF     	 add r7,sp,#0
 986              	.LCFI50:
 987              	 .cfi_def_cfa_register 7
 183:usb_xmem.c    **** 
 184:usb_xmem.c    **** 
 185:usb_xmem.c    ****   smc_set_setup_timing(SMC, 0,
 988              	 .loc 1 185 3
 989 0004 4FF48072 	 mov r2,#256
 990 0008 0021     	 movs r1,#0
 991 000a 0A48     	 ldr r0,.L56
 992 000c 0A4B     	 ldr r3,.L56+4
 993 000e 9847     	 blx r3
 994              	.LVL22:
 186:usb_xmem.c    ****   SMC_SETUP_NWE_SETUP(0) |
 187:usb_xmem.c    ****   SMC_SETUP_NCS_WR_SETUP(1) |
 188:usb_xmem.c    ****   SMC_SETUP_NRD_SETUP(0) |
 189:usb_xmem.c    ****   SMC_SETUP_NCS_RD_SETUP(0)
 190:usb_xmem.c    ****   );
 191:usb_xmem.c    **** 
 192:usb_xmem.c    ****   smc_set_pulse_timing(SMC, 0,
 995              	 .loc 1 192 3
 996 0010 0A4A     	 ldr r2,.L56+8
 997 0012 0021     	 movs r1,#0
 998 0014 0748     	 ldr r0,.L56
 999 0016 0A4B     	 ldr r3,.L56+12
 1000 0018 9847     	 blx r3
 1001              	.LVL23:
 193:usb_xmem.c    ****   SMC_PULSE_NWE_PULSE(1) |
 194:usb_xmem.c    ****   SMC_PULSE_NCS_WR_PULSE(1) |
 195:usb_xmem.c    ****   SMC_PULSE_NRD_PULSE(3) |
 196:usb_xmem.c    ****   SMC_PULSE_NCS_RD_PULSE(3)
 197:usb_xmem.c    ****   );
 198:usb_xmem.c    **** 
 199:usb_xmem.c    ****   smc_set_cycle_timing(SMC, 0,
 1002              	 .loc 1 199 3
 1003 001a 0A4A     	 ldr r2,.L56+16
 1004 001c 0021     	 movs r1,#0
 1005 001e 0548     	 ldr r0,.L56
 1006 0020 094B     	 ldr r3,.L56+20
 1007 0022 9847     	 blx r3
 1008              	.LVL24:
 200:usb_xmem.c    ****   SMC_CYCLE_NWE_CYCLE(2) |
 201:usb_xmem.c    ****   SMC_CYCLE_NRD_CYCLE(4)
 202:usb_xmem.c    ****   );
 203:usb_xmem.c    **** 
 204:usb_xmem.c    ****   smc_set_mode(SMC, 0,
 1009              	 .loc 1 204 3
 1010 0024 0322     	 movs r2,#3
 1011 0026 0021     	 movs r1,#0
 1012 0028 0248     	 ldr r0,.L56
 1013 002a 084B     	 ldr r3,.L56+24
 1014 002c 9847     	 blx r3
 1015              	.LVL25:
 205:usb_xmem.c    ****   SMC_MODE_READ_MODE_NRD_CTRL |
 206:usb_xmem.c    ****   SMC_MODE_WRITE_MODE_NWE_CTRL |
 207:usb_xmem.c    ****   SMC_MODE_DBW_BIT_8
 208:usb_xmem.c    ****   );
 209:usb_xmem.c    **** }
 1016              	 .loc 1 209 1
 1017 002e 00BF     	 nop
 1018 0030 80BD     	 pop {r7,pc}
 1019              	.L57:
 1020 0032 00BF     	 .align 2
 1021              	.L56:
 1022 0034 00000E40 	 .word 1074659328
 1023 0038 00000000 	 .word smc_set_setup_timing
 1024 003c 01010303 	 .word 50528513
 1025 0040 00000000 	 .word smc_set_pulse_timing
 1026 0044 02000400 	 .word 262146
 1027 0048 00000000 	 .word smc_set_cycle_timing
 1028 004c 00000000 	 .word smc_set_mode
 1029              	 .cfi_endproc
 1030              	.LFE193:
 1032              	 .text
 1033              	.Letext0:
 1034              	 .file 2 "c:\\program files (x86)\\gnu arm embedded toolchain\\9 2020-q2-update\\arm-none-eabi\\include\\machine\\_default_types.h"
 1035              	 .file 3 "c:\\program files (x86)\\gnu arm embedded toolchain\\9 2020-q2-update\\arm-none-eabi\\include\\sys\\_stdint.h"
 1036              	 .file 4 ".././hal/sam3u1c/inc/sam3u1c.h"
 1037              	 .file 5 ".././hal/sam3u1c/inc/core_cm3.h"
 1038              	 .file 6 ".././hal/sam3u1c/inc/system_sam3u.h"
 1039              	 .file 7 ".././hal/sam3u1c/inc/component/component_pio.h"
 1040              	 .file 8 ".././hal/sam3u1c/inc/component/component_smc.h"
 1041              	 .file 9 "c:\\program files (x86)\\gnu arm embedded toolchain\\9 2020-q2-update\\lib\\gcc\\arm-none-eabi\\9.3.1\\include\\stddef.h"
 1042              	 .file 10 "c:\\program files (x86)\\gnu arm embedded toolchain\\9 2020-q2-update\\arm-none-eabi\\include\\sys\\_types.h"
 1043              	 .file 11 "c:\\program files (x86)\\gnu arm embedded toolchain\\9 2020-q2-update\\arm-none-eabi\\include\\sys\\reent.h"
 1044              	 .file 12 "c:\\program files (x86)\\gnu arm embedded toolchain\\9 2020-q2-update\\arm-none-eabi\\include\\sys\\lock.h"
 1045              	 .file 13 "c:\\program files (x86)\\gnu arm embedded toolchain\\9 2020-q2-update\\arm-none-eabi\\include\\stdlib.h"
 1046              	 .file 14 ".././hal/sam3u1c/inc/interrupt/interrupt_sam_nvic.h"
 1047              	 .file 15 ".././hal/sam3u1c/inc/compiler.h"
 1048              	 .file 16 ".././hal/sam3u1c/inc/sam/sleepmgr.h"
 1049              	 .file 17 "./conf_usb.h"
 1050              	 .file 18 ".././hal/sam3u1c/inc/usb_protocol.h"
 1051              	 .file 19 ".././hal/sam3u1c/inc/udi.h"
 1052              	 .file 20 ".././hal/sam3u1c/inc/udc_desc.h"
 1053              	 .file 21 ".././hal/sam3u1c/inc/udd.h"
 1054              	 .file 22 ".././hal/sam3u1c/inc/udi_vendor.h"
 1055              	 .file 23 "usb_xmem.h"
 1056              	 .file 24 ".././hal/sam3u1c/inc/smc.h"
 1057              	 .file 25 ".././hal/sam3u1c/inc/pio.h"