   1              	 .cpu cortex-m3
   2              	 .eabi_attribute 20,1
   3              	 .eabi_attribute 21,1
   4              	 .eabi_attribute 23,3
   5              	 .eabi_attribute 24,1
   6              	 .eabi_attribute 25,1
   7              	 .eabi_attribute 26,1
   8              	 .eabi_attribute 30,6
   9              	 .eabi_attribute 34,1
  10              	 .eabi_attribute 18,4
  11              	 .file "V2ProtocolParams.c"
  12              	 .text
  13              	.Ltext0:
  14              	 .cfi_sections .debug_frame
  15              	 .section .bss.cpu_irq_critical_section_counter,"aw",%nobits
  16              	 .align 2
  19              	cpu_irq_critical_section_counter:
  20 0000 00000000 	 .space 4
  21              	 .section .bss.cpu_irq_prev_interrupt_state,"aw",%nobits
  24              	cpu_irq_prev_interrupt_state:
  25 0000 00       	 .space 1
  26              	 .section .data.ParameterTable,"aw"
  27              	 .align 2
  30              	ParameterTable:
  31 0000 80       	 .byte -128
  32 0001 01       	 .byte 1
  33 0002 00       	 .byte 0
  34 0003 81       	 .byte -127
  35 0004 01       	 .byte 1
  36 0005 00       	 .byte 0
  37 0006 90       	 .byte -112
  38 0007 01       	 .byte 1
  39 0008 00       	 .byte 0
  40 0009 91       	 .byte -111
  41 000a 01       	 .byte 1
  42 000b 01       	 .byte 1
  43 000c 92       	 .byte -110
  44 000d 01       	 .byte 1
  45 000e 17       	 .byte 23
  46 000f 94       	 .byte -108
  47 0010 01       	 .byte 1
  48 0011 21       	 .byte 33
  49 0012 98       	 .byte -104
  50 0013 03       	 .byte 3
  51 0014 06       	 .byte 6
  52 0015 9E       	 .byte -98
  53 0016 03       	 .byte 3
  54 0017 01       	 .byte 1
  55 0018 A1       	 .byte -95
  56 0019 01       	 .byte 1
  57 001a 00       	 .byte 0
  58 001b A4       	 .byte -92
  59 001c 03       	 .byte 3
  60 001d 00       	 .byte 0
  61              	 .section .text.V2Params_GetParameterPrivileges,"ax",%progbits
  62              	 .align 1
  63              	 .global V2Params_GetParameterPrivileges
  64              	 .arch armv7-m
  65              	 .syntax unified
  66              	 .thumb
  67              	 .thumb_func
  68              	 .fpu softvfp
  70              	V2Params_GetParameterPrivileges:
  71              	.LFB184:
  72              	 .file 1 "V2ProtocolParams.c"
   1:V2ProtocolParams.c **** /* This file is based on the excellent LUFA Library, which is:
   2:V2ProtocolParams.c ****   Copyright (C) Dean Camera, 2013. See www.lufa-lib.org
   3:V2ProtocolParams.c ****   
   4:V2ProtocolParams.c ****   Note it has been modified for the SAM3U by NewAE Technology Inc.,
   5:V2ProtocolParams.c ****   changes Copyright (C) NewAE Technology Inc, 2015. Changes have
   6:V2ProtocolParams.c ****   generally basterdized and reduced the functionality of the original
   7:V2ProtocolParams.c ****   code, so please see original code if using this to port. 
   8:V2ProtocolParams.c **** */
   9:V2ProtocolParams.c **** 
  10:V2ProtocolParams.c **** 
  11:V2ProtocolParams.c **** /*
  12:V2ProtocolParams.c ****   Copyright 2013  Dean Camera (dean [at] fourwalledcubicle [dot] com)
  13:V2ProtocolParams.c **** 
  14:V2ProtocolParams.c ****   Permission to use, copy, modify, distribute, and sell this
  15:V2ProtocolParams.c ****   software and its documentation for any purpose is hereby granted
  16:V2ProtocolParams.c ****   without fee, provided that the above copyright notice appear in
  17:V2ProtocolParams.c ****   all copies and that both that the copyright notice and this
  18:V2ProtocolParams.c ****   permission notice and warranty disclaimer appear in supporting
  19:V2ProtocolParams.c ****   documentation, and that the name of the author not be used in
  20:V2ProtocolParams.c ****   advertising or publicity pertaining to distribution of the
  21:V2ProtocolParams.c ****   software without specific, written prior permission.
  22:V2ProtocolParams.c **** 
  23:V2ProtocolParams.c ****   The author disclaims all warranties with regard to this
  24:V2ProtocolParams.c ****   software, including all implied warranties of merchantability
  25:V2ProtocolParams.c ****   and fitness.  In no event shall the author be liable for any
  26:V2ProtocolParams.c ****   special, indirect or consequential damages or any damages
  27:V2ProtocolParams.c ****   whatsoever resulting from loss of use, data or profits, whether
  28:V2ProtocolParams.c ****   in an action of contract, negligence or other tortious action,
  29:V2ProtocolParams.c ****   arising out of or in connection with the use or performance of
  30:V2ProtocolParams.c ****   this software.
  31:V2ProtocolParams.c **** */
  32:V2ProtocolParams.c **** 
  33:V2ProtocolParams.c **** /** \file
  34:V2ProtocolParams.c ****  *
  35:V2ProtocolParams.c ****  *  V2Protocol parameter handler, to process V2 Protocol device parameters.
  36:V2ProtocolParams.c ****  */
  37:V2ProtocolParams.c **** 
  38:V2ProtocolParams.c **** #define  INCLUDE_FROM_V2PROTOCOL_PARAMS_C
  39:V2ProtocolParams.c **** #include "V2ProtocolParams.h"
  40:V2ProtocolParams.c **** 
  41:V2ProtocolParams.c **** #include "cw521.h"
  42:V2ProtocolParams.c **** /* Non-Volatile Parameter Values for EEPROM storage */
  43:V2ProtocolParams.c **** //static uint8_t EEPROM_Reset_Polarity = 0x01;
  44:V2ProtocolParams.c **** 
  45:V2ProtocolParams.c **** /* Non-Volatile Parameter Values for EEPROM storage */
  46:V2ProtocolParams.c **** //static uint8_t EEPROM_SCK_Duration   = 0x06;
  47:V2ProtocolParams.c **** 
  48:V2ProtocolParams.c **** /* Volatile Parameter Values for RAM storage */
  49:V2ProtocolParams.c **** static ParameterItem_t ParameterTable[] =
  50:V2ProtocolParams.c **** 	{
  51:V2ProtocolParams.c **** 		{ .ParamID          = PARAM_BUILD_NUMBER_LOW,
  52:V2ProtocolParams.c **** 		  .ParamPrivileges  = PARAM_PRIV_READ,
  53:V2ProtocolParams.c **** 		  .ParamValue       = 0                                  },
  54:V2ProtocolParams.c **** 
  55:V2ProtocolParams.c **** 		{ .ParamID          = PARAM_BUILD_NUMBER_HIGH,
  56:V2ProtocolParams.c **** 		  .ParamPrivileges  = PARAM_PRIV_READ,
  57:V2ProtocolParams.c **** 		  .ParamValue       = 0                                  },
  58:V2ProtocolParams.c **** 
  59:V2ProtocolParams.c **** 		{ .ParamID          = PARAM_HW_VER,
  60:V2ProtocolParams.c **** 		  .ParamPrivileges  = PARAM_PRIV_READ,
  61:V2ProtocolParams.c **** 		  .ParamValue       = 0x00                               },
  62:V2ProtocolParams.c **** 
  63:V2ProtocolParams.c **** 		{ .ParamID          = PARAM_SW_MAJOR,
  64:V2ProtocolParams.c **** 		  .ParamPrivileges  = PARAM_PRIV_READ,
  65:V2ProtocolParams.c **** 		  .ParamValue       = 0x01                               },
  66:V2ProtocolParams.c **** 
  67:V2ProtocolParams.c **** 		{ .ParamID          = PARAM_SW_MINOR,
  68:V2ProtocolParams.c **** 		  .ParamPrivileges  = PARAM_PRIV_READ,
  69:V2ProtocolParams.c **** 		  .ParamValue       = FIRMWARE_VERSION_MINOR             },
  70:V2ProtocolParams.c **** 
  71:V2ProtocolParams.c **** 		{ .ParamID          = PARAM_VTARGET,
  72:V2ProtocolParams.c **** 		  .ParamPrivileges  = PARAM_PRIV_READ,
  73:V2ProtocolParams.c **** 		  .ParamValue       = (uint8_t)(3.3 * 10)                },
  74:V2ProtocolParams.c **** 
  75:V2ProtocolParams.c **** 		{ .ParamID          = PARAM_SCK_DURATION,
  76:V2ProtocolParams.c **** 		  .ParamPrivileges  = PARAM_PRIV_READ | PARAM_PRIV_WRITE,
  77:V2ProtocolParams.c **** 		  .ParamValue       = 6                                  },
  78:V2ProtocolParams.c **** 
  79:V2ProtocolParams.c **** 		{ .ParamID          = PARAM_RESET_POLARITY,
  80:V2ProtocolParams.c **** 		  .ParamPrivileges  = PARAM_PRIV_READ | PARAM_PRIV_WRITE,
  81:V2ProtocolParams.c **** 		  .ParamValue       = 0x01                               },
  82:V2ProtocolParams.c **** 
  83:V2ProtocolParams.c **** 		{ .ParamID          = PARAM_STATUS_TGT_CONN,
  84:V2ProtocolParams.c **** 		  .ParamPrivileges  = PARAM_PRIV_READ,
  85:V2ProtocolParams.c **** 		  .ParamValue       = STATUS_ISP_READY                   },
  86:V2ProtocolParams.c **** 
  87:V2ProtocolParams.c **** 		{ .ParamID          = PARAM_DISCHARGEDELAY,
  88:V2ProtocolParams.c **** 		  .ParamPrivileges  = PARAM_PRIV_READ | PARAM_PRIV_WRITE,
  89:V2ProtocolParams.c **** 		  .ParamValue       = 0x00                               },
  90:V2ProtocolParams.c **** 	};
  91:V2ProtocolParams.c **** 
  92:V2ProtocolParams.c **** /** Retrieves the host PC read/write privileges for a given parameter in the parameter table. This 
  93:V2ProtocolParams.c ****  *  be called before calls to \ref V2Params_GetParameterValue() or \ref V2Params_SetParameterValue(
  94:V2ProtocolParams.c ****  *  getting or setting parameter values in response to requests from the host.
  95:V2ProtocolParams.c ****  *
  96:V2ProtocolParams.c ****  *  \param[in] ParamID  Parameter ID whose privileges are to be retrieved from the table
  97:V2ProtocolParams.c ****  *
  98:V2ProtocolParams.c ****  *  \return Privileges for the requested parameter, as a mask of \c PARAM_PRIV_* masks
  99:V2ProtocolParams.c ****  */
 100:V2ProtocolParams.c **** uint8_t V2Params_GetParameterPrivileges(const uint8_t ParamID)
 101:V2ProtocolParams.c **** {
  73              	 .loc 1 101 1
  74              	 .cfi_startproc
  75              	 
  76              	 
  77 0000 80B5     	 push {r7,lr}
  78              	.LCFI0:
  79              	 .cfi_def_cfa_offset 8
  80              	 .cfi_offset 7,-8
  81              	 .cfi_offset 14,-4
  82 0002 84B0     	 sub sp,sp,#16
  83              	.LCFI1:
  84              	 .cfi_def_cfa_offset 24
  85 0004 00AF     	 add r7,sp,#0
  86              	.LCFI2:
  87              	 .cfi_def_cfa_register 7
  88 0006 0346     	 mov r3,r0
  89 0008 FB71     	 strb r3,[r7,#7]
 102:V2ProtocolParams.c **** 	ParameterItem_t* const ParamInfo = V2Params_GetParamFromTable(ParamID);
  90              	 .loc 1 102 37
  91 000a FB79     	 ldrb r3,[r7,#7]
  92 000c 1846     	 mov r0,r3
  93 000e 074B     	 ldr r3,.L4
  94 0010 9847     	 blx r3
  95              	.LVL0:
  96 0012 F860     	 str r0,[r7,#12]
 103:V2ProtocolParams.c **** 
 104:V2ProtocolParams.c **** 	if (ParamInfo == NULL)
  97              	 .loc 1 104 5
  98 0014 FB68     	 ldr r3,[r7,#12]
  99 0016 002B     	 cmp r3,#0
 100 0018 01D1     	 bne .L2
 105:V2ProtocolParams.c **** 	  return 0;
 101              	 .loc 1 105 11
 102 001a 0023     	 movs r3,#0
 103 001c 01E0     	 b .L3
 104              	.L2:
 106:V2ProtocolParams.c **** 
 107:V2ProtocolParams.c **** 	return ParamInfo->ParamPrivileges;
 105              	 .loc 1 107 18
 106 001e FB68     	 ldr r3,[r7,#12]
 107 0020 5B78     	 ldrb r3,[r3,#1]
 108              	.L3:
 108:V2ProtocolParams.c **** }
 109              	 .loc 1 108 1
 110 0022 1846     	 mov r0,r3
 111 0024 1037     	 adds r7,r7,#16
 112              	.LCFI3:
 113              	 .cfi_def_cfa_offset 8
 114 0026 BD46     	 mov sp,r7
 115              	.LCFI4:
 116              	 .cfi_def_cfa_register 13
 117              	 
 118 0028 80BD     	 pop {r7,pc}
 119              	.L5:
 120 002a 00BF     	 .align 2
 121              	.L4:
 122 002c 00000000 	 .word V2Params_GetParamFromTable
 123              	 .cfi_endproc
 124              	.LFE184:
 126              	 .section .text.V2Params_GetParameterValue,"ax",%progbits
 127              	 .align 1
 128              	 .global V2Params_GetParameterValue
 129              	 .syntax unified
 130              	 .thumb
 131              	 .thumb_func
 132              	 .fpu softvfp
 134              	V2Params_GetParameterValue:
 135              	.LFB185:
 109:V2ProtocolParams.c **** 
 110:V2ProtocolParams.c **** /** Retrieves the current value for a given parameter in the parameter table.
 111:V2ProtocolParams.c ****  *
 112:V2ProtocolParams.c ****  *  \note This function does not first check for read privileges - if the value is being sent to th
 113:V2ProtocolParams.c ****  *        GET PARAM command, \ref V2Params_GetParameterPrivileges() should be called first to ensur
 114:V2ProtocolParams.c ****  *        parameter is host-readable.
 115:V2ProtocolParams.c ****  *
 116:V2ProtocolParams.c ****  *  \param[in] ParamID  Parameter ID whose value is to be retrieved from the table
 117:V2ProtocolParams.c ****  *
 118:V2ProtocolParams.c ****  *  \return Current value of the parameter in the table, or 0 if not found
 119:V2ProtocolParams.c ****  */
 120:V2ProtocolParams.c **** uint8_t V2Params_GetParameterValue(const uint8_t ParamID)
 121:V2ProtocolParams.c **** {
 136              	 .loc 1 121 1
 137              	 .cfi_startproc
 138              	 
 139              	 
 140 0000 80B5     	 push {r7,lr}
 141              	.LCFI5:
 142              	 .cfi_def_cfa_offset 8
 143              	 .cfi_offset 7,-8
 144              	 .cfi_offset 14,-4
 145 0002 84B0     	 sub sp,sp,#16
 146              	.LCFI6:
 147              	 .cfi_def_cfa_offset 24
 148 0004 00AF     	 add r7,sp,#0
 149              	.LCFI7:
 150              	 .cfi_def_cfa_register 7
 151 0006 0346     	 mov r3,r0
 152 0008 FB71     	 strb r3,[r7,#7]
 122:V2ProtocolParams.c **** 	ParameterItem_t* const ParamInfo = V2Params_GetParamFromTable(ParamID);
 153              	 .loc 1 122 37
 154 000a FB79     	 ldrb r3,[r7,#7]
 155 000c 1846     	 mov r0,r3
 156 000e 074B     	 ldr r3,.L9
 157 0010 9847     	 blx r3
 158              	.LVL1:
 159 0012 F860     	 str r0,[r7,#12]
 123:V2ProtocolParams.c **** 
 124:V2ProtocolParams.c **** 	if (ParamInfo == NULL)
 160              	 .loc 1 124 5
 161 0014 FB68     	 ldr r3,[r7,#12]
 162 0016 002B     	 cmp r3,#0
 163 0018 01D1     	 bne .L7
 125:V2ProtocolParams.c **** 	  return 0;
 164              	 .loc 1 125 11
 165 001a 0023     	 movs r3,#0
 166 001c 01E0     	 b .L8
 167              	.L7:
 126:V2ProtocolParams.c **** 
 127:V2ProtocolParams.c **** 	return ParamInfo->ParamValue;
 168              	 .loc 1 127 18
 169 001e FB68     	 ldr r3,[r7,#12]
 170 0020 9B78     	 ldrb r3,[r3,#2]
 171              	.L8:
 128:V2ProtocolParams.c **** }
 172              	 .loc 1 128 1
 173 0022 1846     	 mov r0,r3
 174 0024 1037     	 adds r7,r7,#16
 175              	.LCFI8:
 176              	 .cfi_def_cfa_offset 8
 177 0026 BD46     	 mov sp,r7
 178              	.LCFI9:
 179              	 .cfi_def_cfa_register 13
 180              	 
 181 0028 80BD     	 pop {r7,pc}
 182              	.L10:
 183 002a 00BF     	 .align 2
 184              	.L9:
 185 002c 00000000 	 .word V2Params_GetParamFromTable
 186              	 .cfi_endproc
 187              	.LFE185:
 189              	 .section .text.V2Params_SetParameterValue,"ax",%progbits
 190              	 .align 1
 191              	 .global V2Params_SetParameterValue
 192              	 .syntax unified
 193              	 .thumb
 194              	 .thumb_func
 195              	 .fpu softvfp
 197              	V2Params_SetParameterValue:
 198              	.LFB186:
 129:V2ProtocolParams.c **** 
 130:V2ProtocolParams.c **** /** Sets the value for a given parameter in the parameter table.
 131:V2ProtocolParams.c ****  *
 132:V2ProtocolParams.c ****  *  \note This function does not first check for write privileges - if the value is being sourced f
 133:V2ProtocolParams.c ****  *        via a SET PARAM command, \ref V2Params_GetParameterPrivileges() should be called first to
 134:V2ProtocolParams.c ****  *        parameter is host-writable.
 135:V2ProtocolParams.c ****  *
 136:V2ProtocolParams.c ****  *  \param[in] ParamID  Parameter ID whose value is to be set in the table
 137:V2ProtocolParams.c ****  *  \param[in] Value    New value to set the parameter to
 138:V2ProtocolParams.c ****  *
 139:V2ProtocolParams.c ****  *  \return Pointer to the associated parameter information from the parameter table if found, NULL
 140:V2ProtocolParams.c ****  */
 141:V2ProtocolParams.c **** void V2Params_SetParameterValue(const uint8_t ParamID,
 142:V2ProtocolParams.c ****                                 const uint8_t Value)
 143:V2ProtocolParams.c **** {
 199              	 .loc 1 143 1
 200              	 .cfi_startproc
 201              	 
 202              	 
 203 0000 80B5     	 push {r7,lr}
 204              	.LCFI10:
 205              	 .cfi_def_cfa_offset 8
 206              	 .cfi_offset 7,-8
 207              	 .cfi_offset 14,-4
 208 0002 84B0     	 sub sp,sp,#16
 209              	.LCFI11:
 210              	 .cfi_def_cfa_offset 24
 211 0004 00AF     	 add r7,sp,#0
 212              	.LCFI12:
 213              	 .cfi_def_cfa_register 7
 214 0006 0346     	 mov r3,r0
 215 0008 0A46     	 mov r2,r1
 216 000a FB71     	 strb r3,[r7,#7]
 217 000c 1346     	 mov r3,r2
 218 000e BB71     	 strb r3,[r7,#6]
 144:V2ProtocolParams.c **** 	ParameterItem_t* const ParamInfo = V2Params_GetParamFromTable(ParamID);
 219              	 .loc 1 144 37
 220 0010 FB79     	 ldrb r3,[r7,#7]
 221 0012 1846     	 mov r0,r3
 222 0014 064B     	 ldr r3,.L15
 223 0016 9847     	 blx r3
 224              	.LVL2:
 225 0018 F860     	 str r0,[r7,#12]
 145:V2ProtocolParams.c **** 
 146:V2ProtocolParams.c **** 	if (ParamInfo == NULL)
 226              	 .loc 1 146 5
 227 001a FB68     	 ldr r3,[r7,#12]
 228 001c 002B     	 cmp r3,#0
 229 001e 03D0     	 beq .L14
 147:V2ProtocolParams.c **** 	  return;
 148:V2ProtocolParams.c **** 
 149:V2ProtocolParams.c **** 	ParamInfo->ParamValue = Value;
 230              	 .loc 1 149 24
 231 0020 FB68     	 ldr r3,[r7,#12]
 232 0022 BA79     	 ldrb r2,[r7,#6]
 233 0024 9A70     	 strb r2,[r3,#2]
 234 0026 00E0     	 b .L11
 235              	.L14:
 147:V2ProtocolParams.c **** 	  return;
 236              	 .loc 1 147 4
 237 0028 00BF     	 nop
 238              	.L11:
 150:V2ProtocolParams.c **** }
 239              	 .loc 1 150 1
 240 002a 1037     	 adds r7,r7,#16
 241              	.LCFI13:
 242              	 .cfi_def_cfa_offset 8
 243 002c BD46     	 mov sp,r7
 244              	.LCFI14:
 245              	 .cfi_def_cfa_register 13
 246              	 
 247 002e 80BD     	 pop {r7,pc}
 248              	.L16:
 249              	 .align 2
 250              	.L15:
 251 0030 00000000 	 .word V2Params_GetParamFromTable
 252              	 .cfi_endproc
 253              	.LFE186:
 255              	 .section .text.V2Params_GetParamFromTable,"ax",%progbits
 256              	 .align 1
 257              	 .syntax unified
 258              	 .thumb
 259              	 .thumb_func
 260              	 .fpu softvfp
 262              	V2Params_GetParamFromTable:
 263              	.LFB187:
 151:V2ProtocolParams.c **** 
 152:V2ProtocolParams.c **** /** Retrieves a parameter entry (including ID, value and privileges) from the parameter table that 
 153:V2ProtocolParams.c ****  *  parameter ID.
 154:V2ProtocolParams.c ****  *
 155:V2ProtocolParams.c ****  *  \param[in] ParamID  Parameter ID to find in the table
 156:V2ProtocolParams.c ****  *
 157:V2ProtocolParams.c ****  *  \return Pointer to the associated parameter information from the parameter table if found, NULL
 158:V2ProtocolParams.c ****  */
 159:V2ProtocolParams.c **** static ParameterItem_t* const V2Params_GetParamFromTable(const uint8_t ParamID)
 160:V2ProtocolParams.c **** {
 264              	 .loc 1 160 1
 265              	 .cfi_startproc
 266              	 
 267              	 
 268              	 
 269 0000 80B4     	 push {r7}
 270              	.LCFI15:
 271              	 .cfi_def_cfa_offset 4
 272              	 .cfi_offset 7,-4
 273 0002 85B0     	 sub sp,sp,#20
 274              	.LCFI16:
 275              	 .cfi_def_cfa_offset 24
 276 0004 00AF     	 add r7,sp,#0
 277              	.LCFI17:
 278              	 .cfi_def_cfa_register 7
 279 0006 0346     	 mov r3,r0
 280 0008 FB71     	 strb r3,[r7,#7]
 161:V2ProtocolParams.c **** 	ParameterItem_t* CurrTableItem = ParameterTable;
 281              	 .loc 1 161 19
 282 000a 0D4B     	 ldr r3,.L22
 283 000c FB60     	 str r3,[r7,#12]
 284              	.LBB2:
 162:V2ProtocolParams.c **** 
 163:V2ProtocolParams.c **** 	/* Find the parameter in the parameter table if present */
 164:V2ProtocolParams.c **** 	for (uint8_t TableIndex = 0; TableIndex < TABLE_PARAM_COUNT; TableIndex++)
 285              	 .loc 1 164 15
 286 000e 0023     	 movs r3,#0
 287 0010 FB72     	 strb r3,[r7,#11]
 288              	 .loc 1 164 2
 289 0012 0CE0     	 b .L18
 290              	.L21:
 165:V2ProtocolParams.c **** 	{
 166:V2ProtocolParams.c **** 		if (ParamID == CurrTableItem->ParamID)
 291              	 .loc 1 166 31
 292 0014 FB68     	 ldr r3,[r7,#12]
 293 0016 1B78     	 ldrb r3,[r3]
 294              	 .loc 1 166 6
 295 0018 FA79     	 ldrb r2,[r7,#7]
 296 001a 9A42     	 cmp r2,r3
 297 001c 01D1     	 bne .L19
 167:V2ProtocolParams.c **** 		  return CurrTableItem;
 298              	 .loc 1 167 12
 299 001e FB68     	 ldr r3,[r7,#12]
 300 0020 09E0     	 b .L20
 301              	.L19:
 168:V2ProtocolParams.c **** 
 169:V2ProtocolParams.c **** 		CurrTableItem++;
 302              	 .loc 1 169 16 discriminator 2
 303 0022 FB68     	 ldr r3,[r7,#12]
 304 0024 0333     	 adds r3,r3,#3
 305 0026 FB60     	 str r3,[r7,#12]
 164:V2ProtocolParams.c **** 	{
 306              	 .loc 1 164 73 discriminator 2
 307 0028 FB7A     	 ldrb r3,[r7,#11]
 308 002a 0133     	 adds r3,r3,#1
 309 002c FB72     	 strb r3,[r7,#11]
 310              	.L18:
 164:V2ProtocolParams.c **** 	{
 311              	 .loc 1 164 2 discriminator 1
 312 002e FB7A     	 ldrb r3,[r7,#11]
 313 0030 092B     	 cmp r3,#9
 314 0032 EFD9     	 bls .L21
 315              	.LBE2:
 170:V2ProtocolParams.c **** 	}
 171:V2ProtocolParams.c **** 
 172:V2ProtocolParams.c **** 	return NULL;
 316              	 .loc 1 172 9
 317 0034 0023     	 movs r3,#0
 318              	.L20:
 173:V2ProtocolParams.c **** }
 319              	 .loc 1 173 1
 320 0036 1846     	 mov r0,r3
 321 0038 1437     	 adds r7,r7,#20
 322              	.LCFI18:
 323              	 .cfi_def_cfa_offset 4
 324 003a BD46     	 mov sp,r7
 325              	.LCFI19:
 326              	 .cfi_def_cfa_register 13
 327              	 
 328 003c 80BC     	 pop {r7}
 329              	.LCFI20:
 330              	 .cfi_restore 7
 331              	 .cfi_def_cfa_offset 0
 332 003e 7047     	 bx lr
 333              	.L23:
 334              	 .align 2
 335              	.L22:
 336 0040 00000000 	 .word ParameterTable
 337              	 .cfi_endproc
 338              	.LFE187:
 340              	 .text
 341              	.Letext0:
 342              	 .file 2 "c:\\program files (x86)\\gnu arm embedded toolchain\\9 2020-q2-update\\arm-none-eabi\\include\\machine\\_default_types.h"
 343              	 .file 3 "c:\\program files (x86)\\gnu arm embedded toolchain\\9 2020-q2-update\\arm-none-eabi\\include\\sys\\_stdint.h"
 344              	 .file 4 ".././hal/sam3u1c/inc/core_cm3.h"
 345              	 .file 5 ".././hal/sam3u1c/inc/system_sam3u.h"
 346              	 .file 6 "c:\\program files (x86)\\gnu arm embedded toolchain\\9 2020-q2-update\\lib\\gcc\\arm-none-eabi\\9.3.1\\include\\stddef.h"
 347              	 .file 7 "c:\\program files (x86)\\gnu arm embedded toolchain\\9 2020-q2-update\\arm-none-eabi\\include\\sys\\_types.h"
 348              	 .file 8 "c:\\program files (x86)\\gnu arm embedded toolchain\\9 2020-q2-update\\arm-none-eabi\\include\\sys\\reent.h"
 349              	 .file 9 "c:\\program files (x86)\\gnu arm embedded toolchain\\9 2020-q2-update\\arm-none-eabi\\include\\sys\\lock.h"
 350              	 .file 10 "c:\\program files (x86)\\gnu arm embedded toolchain\\9 2020-q2-update\\arm-none-eabi\\include\\stdlib.h"
 351              	 .file 11 ".././hal/sam3u1c/inc/interrupt/interrupt_sam_nvic.h"
 352              	 .file 12 ".././hal/sam3u1c/inc/compiler.h"
 353              	 .file 13 ".././hal/sam3u1c/inc/sam/sleepmgr.h"
 354              	 .file 14 "./conf_usb.h"
 355              	 .file 15 ".././hal/sam3u1c/inc/usb_protocol.h"
 356              	 .file 16 ".././hal/sam3u1c/inc/udi.h"
 357              	 .file 17 ".././hal/sam3u1c/inc/udc_desc.h"
 358              	 .file 18 ".././hal/sam3u1c/inc/udd.h"
 359              	 .file 19 ".././hal/sam3u1c/inc/udi_vendor.h"
 360              	 .file 20 "XPROGTimeout.h"
 361              	 .file 21 "V2Protocol.h"
 362              	 .file 22 "V2ProtocolParams.h"